; Function Attrs: mustprogress uwtable
define hidden void @_ZN3sat12local_search13extract_modelEv(ptr noundef nonnull align 8 dereferenceable(232) %0) local_unnamed_addr #3 align 2 {
  %2 = getelementptr inbounds nuw i8, ptr %0, i64 224
  %3 = load ptr, ptr %2, align 8, !tbaa !298
  %.not.i = icmp eq ptr %3, null
  br i1 %.not.i, label %_ZN6vectorI5lboolLb0EjE5resetEv.exit, label %4

4:                                                ; preds = %1
  %5 = getelementptr inbounds i8, ptr %3, i64 -4
  store i32 0, ptr %5, align 4, !tbaa !13
  br label %_ZN6vectorI5lboolLb0EjE5resetEv.exit

_ZN6vectorI5lboolLb0EjE5resetEv.exit:             ; preds = %1, %4
  %6 = getelementptr inbounds nuw i8, ptr %0, i64 40
  br label %7

7:                                                ; preds = %_ZN6vectorI5lboolLb0EjE9push_backEOS0_.exit, %_ZN6vectorI5lboolLb0EjE5resetEv.exit
  %8 = phi ptr [ %31, %_ZN6vectorI5lboolLb0EjE9push_backEOS0_.exit ], [ %3, %_ZN6vectorI5lboolLb0EjE5resetEv.exit ]
  %indvars.iv = phi i64 [ %indvars.iv.next, %_ZN6vectorI5lboolLb0EjE9push_backEOS0_.exit ], [ 0, %_ZN6vectorI5lboolLb0EjE5resetEv.exit ]
  %9 = load ptr, ptr %6, align 8, !tbaa !49
  %10 = icmp eq ptr %9, null
  br i1 %10, label %_ZNK3sat12local_search8num_varsEv.exit, label %11

11:                                               ; preds = %7
  %12 = getelementptr inbounds i8, ptr %9, i64 -4
  %13 = load i32, ptr %12, align 4, !tbaa !13
  %14 = add i32 %13, -1
  %15 = zext i32 %14 to i64
  br label %_ZNK3sat12local_search8num_varsEv.exit

_ZNK3sat12local_search8num_varsEv.exit:           ; preds = %7, %11
  %.0.i.i = phi i64 [ %15, %11 ], [ 4294967295, %7 ]
  %16 = icmp samesign ult i64 %indvars.iv, %.0.i.i
  br i1 %16, label %18, label %17

17:                                               ; preds = %_ZNK3sat12local_search8num_varsEv.exit
  ret void

18:                                               ; preds = %_ZNK3sat12local_search8num_varsEv.exit
  %19 = getelementptr inbounds nuw %"struct.sat::local_search::var_info", ptr %9, i64 %indvars.iv
  %20 = load i8, ptr %19, align 8, !tbaa !54, !range !7, !noundef !8
  %21 = trunc nuw i8 %20 to i1
  %22 = select i1 %21, i32 1, i32 -1
  %23 = icmp eq ptr %8, null
  br i1 %23, label %30, label %24

24:                                               ; preds = %18
  %25 = getelementptr inbounds i8, ptr %8, i64 -4
  %26 = load i32, ptr %25, align 4, !tbaa !13
  %27 = getelementptr inbounds i8, ptr %8, i64 -8
  %28 = load i32, ptr %27, align 4, !tbaa !13
  %29 = icmp eq i32 %26, %28
  br i1 %29, label %30, label %_ZN6vectorI5lboolLb0EjE9push_backEOS0_.exit

30:                                               ; preds = %24, %18
  tail call void @_ZN6vectorI5lboolLb0EjE13expand_vectorEv(ptr noundef nonnull align 8 dereferenceable(8) %2)
  %.pre.i = load ptr, ptr %2, align 8, !tbaa !298
  %.phi.trans.insert.i = getelementptr inbounds i8, ptr %.pre.i, i64 -4
  %.pre2.i = load i32, ptr %.phi.trans.insert.i, align 4, !tbaa !13
  br label %_ZN6vectorI5lboolLb0EjE9push_backEOS0_.exit

_ZN6vectorI5lboolLb0EjE9push_backEOS0_.exit:      ; preds = %24, %30
  %31 = phi ptr [ %.pre.i, %30 ], [ %8, %24 ]
  %32 = phi i32 [ %.pre2.i, %30 ], [ %26, %24 ]
  %33 = getelementptr inbounds i8, ptr %31, i64 -4
  %34 = zext i32 %32 to i64
  %35 = getelementptr inbounds nuw i32, ptr %31, i64 %34
  store i32 %22, ptr %35, align 4, !tbaa !301
  %36 = add i32 %32, 1
  store i32 %36, ptr %33, align 4, !tbaa !13
  %indvars.iv.next = add nuw nsw i64 %indvars.iv, 1
  br label %7, !llvm.loop !303
}